target datalayout = "e-m:e-p270:32:32-p271:32:32-p272:64:64-i64:64-i128:128-f80:128-n8:16:32:64-S128"
target triple = "x86_64-pc-linux-gnu"

%struct.reassembly_table = type { ptr, ptr, ptr, ptr, ptr }
%struct.fragment_key = type { ptr, i32, i32 }
%struct.stream = type { ptr, ptr, i32, i32, i32 }
%struct.stream_pdu_t = type { ptr, i32, i32 }
%struct.stream_pdu_fragment = type { i32, ptr, i8 }

@.str = private unnamed_addr constant [29 x i8] c"%s:%u: failed assertion \22%s\22\00", align 1
@.str.1 = private unnamed_addr constant [14 x i8] c"epan/stream.c\00", align 1
@stream_reassembly_table = internal global %struct.reassembly_table zeroinitializer, align 8
@.str.3 = private unnamed_addr constant [7 x i8] c"stream\00", align 1
@.str.4 = private unnamed_addr constant [116 x i8] c"framenum > stream->lastfrag_framenum || (framenum == stream->lastfrag_framenum && offset > stream->lastfrag_offset)\00", align 1
@fragment_hash = internal global ptr null, align 8
@pdu_counter = internal global i32 0, align 4

; Function Attrs: null_pointer_is_valid sspstrong uwtable
define internal ptr @fragment_hash_insert(ptr noundef %0, i32 noundef %1, i32 noundef %2, i32 noundef %3) #0 {
  %5 = alloca ptr, align 8
  %6 = alloca i32, align 4
  %7 = alloca i32, align 4
  %8 = alloca i32, align 4
  %9 = alloca ptr, align 8
  %10 = alloca ptr, align 8
  store ptr %0, ptr %5, align 8
  store i32 %1, ptr %6, align 4
  store i32 %2, ptr %7, align 4
  store i32 %3, ptr %8, align 4
  call void @llvm.lifetime.start.p0(i64 8, ptr %9) #6
  call void @llvm.lifetime.start.p0(i64 8, ptr %10) #6
  %11 = call ptr @wmem_file_scope()
  %12 = call noalias ptr @wmem_alloc(ptr noundef %11, i64 noundef 16) #8
  store ptr %12, ptr %9, align 8
  %13 = load ptr, ptr %5, align 8
  %14 = load ptr, ptr %9, align 8
  %15 = getelementptr inbounds nuw %struct.fragment_key, ptr %14, i32 0, i32 0
  store ptr %13, ptr %15, align 8
  %16 = load i32, ptr %6, align 4
  %17 = load ptr, ptr %9, align 8
  %18 = getelementptr inbounds nuw %struct.fragment_key, ptr %17, i32 0, i32 1
  store i32 %16, ptr %18, align 8
  %19 = load i32, ptr %7, align 4
  %20 = load ptr, ptr %9, align 8
  %21 = getelementptr inbounds nuw %struct.fragment_key, ptr %20, i32 0, i32 2
  store i32 %19, ptr %21, align 4
  %22 = call ptr @wmem_file_scope()
  %23 = call noalias ptr @wmem_alloc(ptr noundef %22, i64 noundef 24) #8
  store ptr %23, ptr %10, align 8
  %24 = load i32, ptr %8, align 4
  %25 = load ptr, ptr %10, align 8
  %26 = getelementptr inbounds nuw %struct.stream_pdu_fragment, ptr %25, i32 0, i32 0
  store i32 %24, ptr %26, align 8
  %27 = load ptr, ptr %10, align 8
  %28 = getelementptr inbounds nuw %struct.stream_pdu_fragment, ptr %27, i32 0, i32 1
  store ptr null, ptr %28, align 8
  %29 = load ptr, ptr %10, align 8
  %30 = getelementptr inbounds nuw %struct.stream_pdu_fragment, ptr %29, i32 0, i32 2
  store i8 0, ptr %30, align 8
  %31 = load ptr, ptr @fragment_hash, align 8
  %32 = load ptr, ptr %9, align 8
  %33 = load ptr, ptr %10, align 8
  %34 = call i32 @g_hash_table_insert(ptr noundef %31, ptr noundef %32, ptr noundef %33)
  %35 = load ptr, ptr %10, align 8
  call void @llvm.lifetime.end.p0(i64 8, ptr %10) #6
  call void @llvm.lifetime.end.p0(i64 8, ptr %9) #6
  ret ptr %35
}

; Function Attrs: null_pointer_is_valid sspstrong uwtable
define internal ptr @stream_new_pdu(ptr noundef %0) #0 {
  %2 = alloca ptr, align 8
  %3 = alloca ptr, align 8
  store ptr %0, ptr %2, align 8
  call void @llvm.lifetime.start.p0(i64 8, ptr %3) #6
  %4 = call ptr @wmem_file_scope()
  %5 = call noalias ptr @wmem_alloc(ptr noundef %4, i64 noundef 16) #8
  store ptr %5, ptr %3, align 8
  %6 = load ptr, ptr %3, align 8
  %7 = getelementptr inbounds nuw %struct.stream_pdu_t, ptr %6, i32 0, i32 0
  store ptr null, ptr %7, align 8
  %8 = load ptr, ptr %2, align 8
  %9 = getelementptr inbounds nuw %struct.stream, ptr %8, i32 0, i32 2
  %10 = load i32, ptr %9, align 8
  %11 = add i32 %10, 1
  store i32 %11, ptr %9, align 8
  %12 = load ptr, ptr %3, align 8
  %13 = getelementptr inbounds nuw %struct.stream_pdu_t, ptr %12, i32 0, i32 1
  store i32 %10, ptr %13, align 8
  %14 = load i32, ptr @pdu_counter, align 4
  %15 = add i32 %14, 1
  store i32 %15, ptr @pdu_counter, align 4
  %16 = load ptr, ptr %3, align 8
  %17 = getelementptr inbounds nuw %struct.stream_pdu_t, ptr %16, i32 0, i32 2
  store i32 %14, ptr %17, align 4
  %18 = load ptr, ptr %3, align 8
  call void @llvm.lifetime.end.p0(i64 8, ptr %3) #6
  ret ptr %18
}

; Function Attrs: null_pointer_is_valid sspstrong uwtable
define ptr @stream_add_frag(ptr noundef %0, i32 noundef %1, i32 noundef %2, ptr noundef %3, ptr noundef %4, i1 noundef zeroext %5) #0 {
  %7 = alloca ptr, align 8
  %8 = alloca i32, align 4
  %9 = alloca i32, align 4
  %10 = alloca ptr, align 8
  %11 = alloca ptr, align 8
  %12 = alloca i8, align 1
  %13 = alloca ptr, align 8
  %14 = alloca ptr, align 8
  %15 = alloca ptr, align 8
  store ptr %0, ptr %7, align 8
  store i32 %1, ptr %8, align 4
  store i32 %2, ptr %9, align 4
  store ptr %3, ptr %10, align 8
  store ptr %4, ptr %11, align 8
  %16 = zext i1 %5 to i8
  store i8 %16, ptr %12, align 1
  call void @llvm.lifetime.start.p0(i64 8, ptr %13) #6
  call void @llvm.lifetime.start.p0(i64 8, ptr %14) #6
  call void @llvm.lifetime.start.p0(i64 8, ptr %15) #6
  %17 = load ptr, ptr %7, align 8
  %18 = icmp ne ptr %17, null
  br i1 %18, label %19, label %20

19:                                               ; preds = %6
  br label %22

20:                                               ; preds = %6
  call void (ptr, ...) @proto_report_dissector_bug(ptr noundef @.str, ptr noundef @.str.1, i32 noundef 335, ptr noundef @.str.3) #7
  unreachable

21:                                               ; No predecessors!
  br label %22

22:                                               ; preds = %21, %19
  %23 = load i32, ptr %8, align 4
  %24 = load ptr, ptr %7, align 8
  %25 = getelementptr inbounds nuw %struct.stream, ptr %24, i32 0, i32 3
  %26 = load i32, ptr %25, align 4
  %27 = icmp ugt i32 %23, %26
  br i1 %27, label %40, label %28

28:                                               ; preds = %22
  %29 = load i32, ptr %8, align 4
  %30 = load ptr, ptr %7, align 8
  %31 = getelementptr inbounds nuw %struct.stream, ptr %30, i32 0, i32 3
  %32 = load i32, ptr %31, align 4
  %33 = icmp eq i32 %29, %32
  br i1 %33, label %34, label %41

34:                                               ; preds = %28
  %35 = load i32, ptr %9, align 4
  %36 = load ptr, ptr %7, align 8
  %37 = getelementptr inbounds nuw %struct.stream, ptr %36, i32 0, i32 4
  %38 = load i32, ptr %37, align 8
  %39 = icmp ugt i32 %35, %38
  br i1 %39, label %40, label %41

40:                                               ; preds = %34, %22
  br label %43

41:                                               ; preds = %34, %28
  call void (ptr, ...) @proto_report_dissector_bug(ptr noundef @.str, ptr noundef @.str.1, i32 noundef 339, ptr noundef @.str.4) #7
  unreachable

42:                                               ; No predecessors!
  br label %43

43:                                               ; preds = %42, %40
  %44 = load ptr, ptr %7, align 8
  %45 = getelementptr inbounds nuw %struct.stream, ptr %44, i32 0, i32 1
  %46 = load ptr, ptr %45, align 8
  store ptr %46, ptr %14, align 8
  %47 = load ptr, ptr %14, align 8
  %48 = icmp eq ptr %47, null
  br i1 %48, label %49, label %54

49:                                               ; preds = %43
  %50 = load ptr, ptr %7, align 8
  %51 = call ptr @stream_new_pdu(ptr noundef %50)
  %52 = load ptr, ptr %7, align 8
  %53 = getelementptr inbounds nuw %struct.stream, ptr %52, i32 0, i32 1
  store ptr %51, ptr %53, align 8
  store ptr %51, ptr %14, align 8
  br label %54

54:                                               ; preds = %49, %43
  %55 = load ptr, ptr %10, align 8
  %56 = load ptr, ptr %11, align 8
  %57 = load ptr, ptr %14, align 8
  %58 = getelementptr inbounds nuw %struct.stream_pdu_t, ptr %57, i32 0, i32 2
  %59 = load i32, ptr %58, align 4
  %60 = load ptr, ptr %10, align 8
  %61 = call i32 @tvb_reported_length(ptr noundef %60)
  %62 = load i8, ptr %12, align 1, !range !6, !noundef !7
  %63 = trunc i8 %62 to i1
  %64 = call ptr @fragment_add_seq_next(ptr noundef @stream_reassembly_table, ptr noundef %55, i32 noundef 0, ptr noundef %56, i32 noundef %59, ptr noundef null, i32 noundef %61, i1 noundef zeroext %63)
  store ptr %64, ptr %13, align 8
  %65 = load ptr, ptr %7, align 8
  %66 = load i32, ptr %8, align 4
  %67 = load i32, ptr %9, align 4
  %68 = load ptr, ptr %10, align 8
  %69 = call i32 @tvb_reported_length(ptr noundef %68)
  %70 = call ptr @fragment_hash_insert(ptr noundef %65, i32 noundef %66, i32 noundef %67, i32 noundef %69)
  store ptr %70, ptr %15, align 8
  %71 = load ptr, ptr %14, align 8
  %72 = load ptr, ptr %15, align 8
  %73 = getelementptr inbounds nuw %struct.stream_pdu_fragment, ptr %72, i32 0, i32 1
  store ptr %71, ptr %73, align 8
  %74 = load ptr, ptr %13, align 8
  %75 = icmp ne ptr %74, null
  br i1 %75, label %76, label %84

76:                                               ; preds = %54
  %77 = load ptr, ptr %13, align 8
  %78 = load ptr, ptr %14, align 8
  %79 = getelementptr inbounds nuw %struct.stream_pdu_t, ptr %78, i32 0, i32 0
  store ptr %77, ptr %79, align 8
  %80 = load ptr, ptr %7, align 8
  %81 = getelementptr inbounds nuw %struct.stream, ptr %80, i32 0, i32 1
  store ptr null, ptr %81, align 8
  %82 = load ptr, ptr %15, align 8
  %83 = getelementptr inbounds nuw %struct.stream_pdu_fragment, ptr %82, i32 0, i32 2
  store i8 1, ptr %83, align 8
  br label %84

84:                                               ; preds = %76, %54
  %85 = load i32, ptr %8, align 4
  %86 = load ptr, ptr %7, align 8
  %87 = getelementptr inbounds nuw %struct.stream, ptr %86, i32 0, i32 3
  store i32 %85, ptr %87, align 4
  %88 = load i32, ptr %9, align 4
  %89 = load ptr, ptr %7, align 8
  %90 = getelementptr inbounds nuw %struct.stream, ptr %89, i32 0, i32 4
  store i32 %88, ptr %90, align 8
  %91 = load ptr, ptr %15, align 8
  call void @llvm.lifetime.end.p0(i64 8, ptr %15) #6
  call void @llvm.lifetime.end.p0(i64 8, ptr %14) #6
  call void @llvm.lifetime.end.p0(i64 8, ptr %13) #6
  ret ptr %91
}