; Function Attrs: null_pointer_is_valid sspstrong uwtable
define noundef ptr @stream_add_frag(ptr noundef %0, i32 noundef %1, i32 noundef %2, ptr noundef %3, ptr noundef %4, i1 noundef zeroext %5) local_unnamed_addr #0 {
  %.not = icmp eq ptr %0, null
  br i1 %.not, label %7, label %8

7:                                                ; preds = %6
  tail call void (ptr, ...) @proto_report_dissector_bug(ptr noundef nonnull @.str, ptr noundef nonnull @.str.1, i32 noundef 335, ptr noundef nonnull @.str.3) #8
  unreachable

8:                                                ; preds = %6
  %9 = getelementptr inbounds nuw i8, ptr %0, i64 20
  %10 = load i32, ptr %9, align 4
  %11 = icmp ugt i32 %1, %10
  br i1 %11, label %19, label %12

12:                                               ; preds = %8
  %13 = icmp eq i32 %1, %10
  br i1 %13, label %14, label %18

14:                                               ; preds = %12
  %15 = getelementptr inbounds nuw i8, ptr %0, i64 24
  %16 = load i32, ptr %15, align 8
  %17 = icmp ugt i32 %2, %16
  br i1 %17, label %19, label %18

18:                                               ; preds = %14, %12
  tail call void (ptr, ...) @proto_report_dissector_bug(ptr noundef nonnull @.str, ptr noundef nonnull @.str.1, i32 noundef 339, ptr noundef nonnull @.str.4) #8
  unreachable

19:                                               ; preds = %8, %14
  %20 = getelementptr inbounds nuw i8, ptr %0, i64 8
  %21 = load ptr, ptr %20, align 8
  %22 = icmp eq ptr %21, null
  br i1 %22, label %23, label %._crit_edge

._crit_edge:                                      ; preds = %19
  %.phi.trans.insert = getelementptr inbounds nuw i8, ptr %21, i64 12
  %.pre = load i32, ptr %.phi.trans.insert, align 4
  br label %33

23:                                               ; preds = %19
  %24 = tail call ptr @wmem_file_scope()
  %25 = tail call noalias dereferenceable_or_null(16) ptr @wmem_alloc(ptr noundef %24, i64 noundef 16) #9
  store ptr null, ptr %25, align 8
  %26 = getelementptr inbounds nuw i8, ptr %0, i64 16
  %27 = load i32, ptr %26, align 8
  %28 = add i32 %27, 1
  store i32 %28, ptr %26, align 8
  %29 = getelementptr inbounds nuw i8, ptr %25, i64 8
  store i32 %27, ptr %29, align 8
  %30 = load i32, ptr @pdu_counter, align 4
  %31 = add i32 %30, 1
  store i32 %31, ptr @pdu_counter, align 4
  %32 = getelementptr inbounds nuw i8, ptr %25, i64 12
  store i32 %30, ptr %32, align 4
  store ptr %25, ptr %20, align 8
  br label %33

33:                                               ; preds = %._crit_edge, %23
  %34 = phi i32 [ %30, %23 ], [ %.pre, %._crit_edge ]
  %.0 = phi ptr [ %25, %23 ], [ %21, %._crit_edge ]
  %35 = tail call i32 @tvb_reported_length(ptr noundef %3)
  %36 = tail call ptr @fragment_add_seq_next(ptr noundef nonnull @stream_reassembly_table, ptr noundef %3, i32 noundef 0, ptr noundef %4, i32 noundef %34, ptr noundef null, i32 noundef %35, i1 noundef zeroext %5)
  %37 = tail call i32 @tvb_reported_length(ptr noundef %3)
  %38 = tail call ptr @wmem_file_scope()
  %39 = tail call noalias dereferenceable_or_null(16) ptr @wmem_alloc(ptr noundef %38, i64 noundef 16) #9
  store ptr %0, ptr %39, align 8
  %40 = getelementptr inbounds nuw i8, ptr %39, i64 8
  store i32 %1, ptr %40, align 8
  %41 = getelementptr inbounds nuw i8, ptr %39, i64 12
  store i32 %2, ptr %41, align 4
  %42 = tail call ptr @wmem_file_scope()
  %43 = tail call noalias dereferenceable_or_null(24) ptr @wmem_alloc(ptr noundef %42, i64 noundef 24) #9
  store i32 %37, ptr %43, align 8
  %44 = getelementptr inbounds nuw i8, ptr %43, i64 8
  store ptr null, ptr %44, align 8
  %45 = getelementptr inbounds nuw i8, ptr %43, i64 16
  store i8 0, ptr %45, align 8
  %46 = load ptr, ptr @fragment_hash, align 8
  %47 = tail call i32 @g_hash_table_insert(ptr noundef %46, ptr noundef %39, ptr noundef %43)
  store ptr %.0, ptr %44, align 8
  %.not36 = icmp eq ptr %36, null
  br i1 %.not36, label %49, label %48

48:                                               ; preds = %33
  store ptr %36, ptr %.0, align 8
  store ptr null, ptr %20, align 8
  store i8 1, ptr %45, align 8
  br label %49

49:                                               ; preds = %48, %33
  store i32 %1, ptr %9, align 4
  %50 = getelementptr inbounds nuw i8, ptr %0, i64 24
  store i32 %2, ptr %50, align 8
  ret ptr %43
}